target datalayout = "e-m:e-p270:32:32-p271:32:32-p272:64:64-i64:64-i128:128-f80:128-n8:16:32:64-S128"
target triple = "x86_64-pc-linux-gnu"

%struct.Gia_Man_t_ = type { ptr, ptr, i32, i32, i32, i32, ptr, ptr, i32, i32, i32, ptr, ptr, %struct.Vec_Int_t_, %struct.Vec_Int_t_, i32, i32, i32, %struct.Vec_Int_t_, ptr, ptr, ptr, i32, i32, i32, i32, ptr, ptr, ptr, ptr, ptr, i32, i32, ptr, i32, ptr, ptr, ptr, ptr, ptr, ptr, ptr, ptr, ptr, ptr, ptr, ptr, ptr, ptr, ptr, ptr, ptr, ptr, %struct.Vec_Int_t_, %struct.Vec_Int_t_, ptr, ptr, ptr, ptr, ptr, ptr, ptr, ptr, ptr, ptr, ptr, ptr, ptr, ptr, ptr, ptr, ptr, ptr, ptr, ptr, ptr, i32, float, float, ptr, ptr, i32, ptr, ptr, ptr, ptr, ptr, ptr, ptr, ptr, ptr, ptr, ptr, ptr, ptr, ptr, ptr, i64, i64, ptr, ptr, i32, i32, i32, i32, i32, i32, i32, i32, i32, i32, i32, i32, ptr, ptr, ptr, ptr, ptr, ptr, ptr, ptr, i32, i32, i32, ptr, i32, i32, ptr, ptr, ptr, ptr, ptr, ptr, i32, i32, ptr, %struct.Vec_Int_t_, %struct.Vec_Int_t_, %struct.Vec_Int_t_, ptr, ptr, ptr, i32, i32, i32, i32, ptr, ptr, ptr, ptr, ptr }
%struct.Vec_Int_t_ = type { i32, i32, ptr }
%struct.Vec_Wec_t_ = type { i32, i32, ptr }

; Function Attrs: inlinehint nounwind uwtable
define internal ptr @Vec_WecEntry(ptr noundef %0, i32 noundef %1) #2 {
  %3 = alloca ptr, align 8
  %4 = alloca i32, align 4
  store ptr %0, ptr %3, align 8, !tbaa !72
  store i32 %1, ptr %4, align 4, !tbaa !10
  %5 = load ptr, ptr %3, align 8, !tbaa !72
  %6 = getelementptr inbounds nuw %struct.Vec_Wec_t_, ptr %5, i32 0, i32 2
  %7 = load ptr, ptr %6, align 8, !tbaa !76
  %8 = load i32, ptr %4, align 4, !tbaa !10
  %9 = sext i32 %8 to i64
  %10 = getelementptr inbounds %struct.Vec_Int_t_, ptr %7, i64 %9
  ret ptr %10
}

; Function Attrs: inlinehint nounwind uwtable
define internal i32 @Vec_IntEntry(ptr noundef %0, i32 noundef %1) #2 {
  %3 = alloca ptr, align 8
  %4 = alloca i32, align 4
  store ptr %0, ptr %3, align 8, !tbaa !8
  store i32 %1, ptr %4, align 4, !tbaa !10
  %5 = load ptr, ptr %3, align 8, !tbaa !8
  %6 = getelementptr inbounds nuw %struct.Vec_Int_t_, ptr %5, i32 0, i32 2
  %7 = load ptr, ptr %6, align 8, !tbaa !36
  %8 = load i32, ptr %4, align 4, !tbaa !10
  %9 = sext i32 %8 to i64
  %10 = getelementptr inbounds i32, ptr %7, i64 %9
  %11 = load i32, ptr %10, align 4, !tbaa !10
  ret i32 %11
}

; Function Attrs: inlinehint nounwind uwtable
define internal i32 @Vec_IntSize(ptr noundef %0) #2 {
  %2 = alloca ptr, align 8
  store ptr %0, ptr %2, align 8, !tbaa !8
  %3 = load ptr, ptr %2, align 8, !tbaa !8
  %4 = getelementptr inbounds nuw %struct.Vec_Int_t_, ptr %3, i32 0, i32 1
  %5 = load i32, ptr %4, align 4, !tbaa !37
  ret i32 %5
}

; Function Attrs: nounwind uwtable
define void @Gia_ManUpdateMapping(ptr noundef %0, ptr noundef %1, ptr noundef %2) #0 {
  %4 = alloca ptr, align 8
  %5 = alloca ptr, align 8
  %6 = alloca ptr, align 8
  %7 = alloca i32, align 4
  %8 = alloca i32, align 4
  %9 = alloca %struct.Vec_Int_t_, align 8
  store ptr %0, ptr %4, align 8, !tbaa !3
  store ptr %1, ptr %5, align 8, !tbaa !8
  store ptr %2, ptr %6, align 8, !tbaa !72
  call void @llvm.lifetime.start.p0(i64 4, ptr %7) #10
  call void @llvm.lifetime.start.p0(i64 4, ptr %8) #10
  store i32 0, ptr %7, align 4, !tbaa !10
  br label %10

10:                                               ; preds = %38, %3
  %11 = load i32, ptr %7, align 4, !tbaa !10
  %12 = load ptr, ptr %5, align 8, !tbaa !8
  %13 = call i32 @Vec_IntSize(ptr noundef %12)
  %14 = icmp slt i32 %11, %13
  br i1 %14, label %15, label %19

15:                                               ; preds = %10
  %16 = load ptr, ptr %5, align 8, !tbaa !8
  %17 = load i32, ptr %7, align 4, !tbaa !10
  %18 = call i32 @Vec_IntEntry(ptr noundef %16, i32 noundef %17)
  store i32 %18, ptr %8, align 4, !tbaa !10
  br label %19

19:                                               ; preds = %15, %10
  %20 = phi i1 [ false, %10 ], [ true, %15 ]
  br i1 %20, label %21, label %41

21:                                               ; preds = %19
  call void @llvm.lifetime.start.p0(i64 16, ptr %9) #10
  %22 = load ptr, ptr %4, align 8, !tbaa !3
  %23 = getelementptr inbounds nuw %struct.Gia_Man_t_, ptr %22, i32 0, i32 38
  %24 = load ptr, ptr %23, align 8, !tbaa !57
  %25 = load i32, ptr %8, align 4, !tbaa !10
  %26 = call ptr @Vec_WecEntry(ptr noundef %24, i32 noundef %25)
  call void @llvm.memcpy.p0.p0.i64(ptr align 8 %9, ptr align 8 %26, i64 16, i1 false), !tbaa.struct !73
  %27 = load ptr, ptr %4, align 8, !tbaa !3
  %28 = getelementptr inbounds nuw %struct.Gia_Man_t_, ptr %27, i32 0, i32 38
  %29 = load ptr, ptr %28, align 8, !tbaa !57
  %30 = load i32, ptr %8, align 4, !tbaa !10
  %31 = call ptr @Vec_WecEntry(ptr noundef %29, i32 noundef %30)
  %32 = load ptr, ptr %6, align 8, !tbaa !72
  %33 = load i32, ptr %7, align 4, !tbaa !10
  %34 = call ptr @Vec_WecEntry(ptr noundef %32, i32 noundef %33)
  call void @llvm.memcpy.p0.p0.i64(ptr align 8 %31, ptr align 8 %34, i64 16, i1 false), !tbaa.struct !73
  %35 = load ptr, ptr %6, align 8, !tbaa !72
  %36 = load i32, ptr %7, align 4, !tbaa !10
  %37 = call ptr @Vec_WecEntry(ptr noundef %35, i32 noundef %36)
  call void @llvm.memcpy.p0.p0.i64(ptr align 8 %37, ptr align 8 %9, i64 16, i1 false), !tbaa.struct !73
  call void @llvm.lifetime.end.p0(i64 16, ptr %9) #10
  br label %38

38:                                               ; preds = %21
  %39 = load i32, ptr %7, align 4, !tbaa !10
  %40 = add nsw i32 %39, 1
  store i32 %40, ptr %7, align 4, !tbaa !10
  br label %10, !llvm.loop !75

41:                                               ; preds = %19
  call void @llvm.lifetime.end.p0(i64 4, ptr %8) #10
  call void @llvm.lifetime.end.p0(i64 4, ptr %7) #10
  ret void
}

; Function Attrs: nounwind uwtable
define i32 @Gia_ManEvalWindow(ptr noundef %0, ptr noundef %1, ptr noundef %2, ptr noundef %3, ptr noundef %4, i32 noundef %5) #0 {
  %7 = alloca ptr, align 8
  %8 = alloca ptr, align 8
  %9 = alloca ptr, align 8
  %10 = alloca ptr, align 8
  %11 = alloca ptr, align 8
  %12 = alloca i32, align 4
  %13 = alloca i32, align 4
  store ptr %0, ptr %7, align 8, !tbaa !3
  store ptr %1, ptr %8, align 8, !tbaa !8
  store ptr %2, ptr %9, align 8, !tbaa !8
  store ptr %3, ptr %10, align 8, !tbaa !72
  store ptr %4, ptr %11, align 8, !tbaa !8
  store i32 %5, ptr %12, align 4, !tbaa !10
  call void @llvm.lifetime.start.p0(i64 4, ptr %13) #10
  %14 = load ptr, ptr %7, align 8, !tbaa !3
  %15 = load ptr, ptr %9, align 8, !tbaa !8
  %16 = load ptr, ptr %10, align 8, !tbaa !72
  call void @Gia_ManUpdateMapping(ptr noundef %14, ptr noundef %15, ptr noundef %16)
  %17 = load ptr, ptr %7, align 8, !tbaa !3
  %18 = load i32, ptr %12, align 4, !tbaa !10
  %19 = call i32 @Gia_ManComputeEdgeDelay(ptr noundef %17, i32 noundef %18)
  store i32 %19, ptr %13, align 4, !tbaa !10
  %20 = load ptr, ptr %7, align 8, !tbaa !3
  %21 = load ptr, ptr %9, align 8, !tbaa !8
  %22 = load ptr, ptr %10, align 8, !tbaa !72
  call void @Gia_ManUpdateMapping(ptr noundef %20, ptr noundef %21, ptr noundef %22)
  %23 = load i32, ptr %13, align 4, !tbaa !10
  call void @llvm.lifetime.end.p0(i64 4, ptr %13) #10
  ret i32 %23
}