; Function Attrs: nounwind uwtable
define range(i32 0, -2147483648) i32 @Gia_ManEvalWindow(ptr noundef %0, ptr noundef readnone captures(none) %1, ptr noundef readonly captures(none) %2, ptr noundef readonly captures(none) %3, ptr noundef readnone captures(none) %4, i32 noundef %5) local_unnamed_addr #0 {
  %7 = alloca %struct.Vec_Int_t_, align 8
  %8 = alloca %struct.Vec_Int_t_, align 8
  %9 = getelementptr i8, ptr %2, i64 4
  %.val17.i = load i32, ptr %9, align 4, !tbaa !31
  %10 = icmp sgt i32 %.val17.i, 0
  br i1 %10, label %.lr.ph.i, label %Gia_ManUpdateMapping.exit

.lr.ph.i:                                         ; preds = %6
  %11 = getelementptr i8, ptr %2, i64 8
  %12 = getelementptr inbounds nuw i8, ptr %0, i64 272
  %13 = getelementptr i8, ptr %3, i64 8
  br label %14

14:                                               ; preds = %14, %.lr.ph.i
  %indvars.iv.i = phi i64 [ 0, %.lr.ph.i ], [ %indvars.iv.next.i, %14 ]
  %.val12.i = load ptr, ptr %11, align 8, !tbaa !8
  %15 = getelementptr inbounds nuw i32, ptr %.val12.i, i64 %indvars.iv.i
  %16 = load i32, ptr %15, align 4, !tbaa !34
  call void @llvm.lifetime.start.p0(i64 16, ptr nonnull %8)
  %17 = load ptr, ptr %12, align 8, !tbaa !47
  %18 = getelementptr i8, ptr %17, i64 8
  %.val13.i = load ptr, ptr %18, align 8, !tbaa !48
  %19 = sext i32 %16 to i64
  %20 = getelementptr inbounds %struct.Vec_Int_t_, ptr %.val13.i, i64 %19
  call void @llvm.memcpy.p0.p0.i64(ptr noundef nonnull align 8 dereferenceable(16) %8, ptr noundef nonnull align 8 dereferenceable(16) %20, i64 16, i1 false), !tbaa.struct !69
  %.val15.i = load ptr, ptr %13, align 8, !tbaa !48
  %21 = getelementptr inbounds nuw %struct.Vec_Int_t_, ptr %.val15.i, i64 %indvars.iv.i
  tail call void @llvm.memcpy.p0.p0.i64(ptr noundef nonnull align 8 dereferenceable(16) %20, ptr noundef nonnull align 8 dereferenceable(16) %21, i64 16, i1 false), !tbaa.struct !69
  %.val16.i = load ptr, ptr %13, align 8, !tbaa !48
  %22 = getelementptr inbounds nuw %struct.Vec_Int_t_, ptr %.val16.i, i64 %indvars.iv.i
  call void @llvm.memcpy.p0.p0.i64(ptr noundef nonnull align 8 dereferenceable(16) %22, ptr noundef nonnull align 8 dereferenceable(16) %8, i64 16, i1 false), !tbaa.struct !69
  call void @llvm.lifetime.end.p0(i64 16, ptr nonnull %8)
  %indvars.iv.next.i = add nuw nsw i64 %indvars.iv.i, 1
  %.val.i = load i32, ptr %9, align 4, !tbaa !31
  %23 = sext i32 %.val.i to i64
  %24 = icmp slt i64 %indvars.iv.next.i, %23
  br i1 %24, label %14, label %Gia_ManUpdateMapping.exit, !llvm.loop !71

Gia_ManUpdateMapping.exit:                        ; preds = %14, %6
  %25 = tail call i32 @Gia_ManComputeEdgeDelay(ptr noundef %0, i32 noundef %5)
  %.val17.i8 = load i32, ptr %9, align 4, !tbaa !31
  %26 = icmp sgt i32 %.val17.i8, 0
  br i1 %26, label %.lr.ph.i9, label %Gia_ManUpdateMapping.exit17

.lr.ph.i9:                                        ; preds = %Gia_ManUpdateMapping.exit
  %27 = getelementptr i8, ptr %2, i64 8
  %28 = getelementptr inbounds nuw i8, ptr %0, i64 272
  %29 = getelementptr i8, ptr %3, i64 8
  br label %30

30:                                               ; preds = %30, %.lr.ph.i9
  %indvars.iv.i10 = phi i64 [ 0, %.lr.ph.i9 ], [ %indvars.iv.next.i15, %30 ]
  %.val12.i11 = load ptr, ptr %27, align 8, !tbaa !8
  %31 = getelementptr inbounds nuw i32, ptr %.val12.i11, i64 %indvars.iv.i10
  %32 = load i32, ptr %31, align 4, !tbaa !34
  call void @llvm.lifetime.start.p0(i64 16, ptr nonnull %7)
  %33 = load ptr, ptr %28, align 8, !tbaa !47
  %34 = getelementptr i8, ptr %33, i64 8
  %.val13.i12 = load ptr, ptr %34, align 8, !tbaa !48
  %35 = sext i32 %32 to i64
  %36 = getelementptr inbounds %struct.Vec_Int_t_, ptr %.val13.i12, i64 %35
  call void @llvm.memcpy.p0.p0.i64(ptr noundef nonnull align 8 dereferenceable(16) %7, ptr noundef nonnull align 8 dereferenceable(16) %36, i64 16, i1 false), !tbaa.struct !69
  %.val15.i13 = load ptr, ptr %29, align 8, !tbaa !48
  %37 = getelementptr inbounds nuw %struct.Vec_Int_t_, ptr %.val15.i13, i64 %indvars.iv.i10
  tail call void @llvm.memcpy.p0.p0.i64(ptr noundef nonnull align 8 dereferenceable(16) %36, ptr noundef nonnull align 8 dereferenceable(16) %37, i64 16, i1 false), !tbaa.struct !69
  %.val16.i14 = load ptr, ptr %29, align 8, !tbaa !48
  %38 = getelementptr inbounds nuw %struct.Vec_Int_t_, ptr %.val16.i14, i64 %indvars.iv.i10
  call void @llvm.memcpy.p0.p0.i64(ptr noundef nonnull align 8 dereferenceable(16) %38, ptr noundef nonnull align 8 dereferenceable(16) %7, i64 16, i1 false), !tbaa.struct !69
  call void @llvm.lifetime.end.p0(i64 16, ptr nonnull %7)
  %indvars.iv.next.i15 = add nuw nsw i64 %indvars.iv.i10, 1
  %.val.i16 = load i32, ptr %9, align 4, !tbaa !31
  %39 = sext i32 %.val.i16 to i64
  %40 = icmp slt i64 %indvars.iv.next.i15, %39
  br i1 %40, label %30, label %Gia_ManUpdateMapping.exit17, !llvm.loop !71

Gia_ManUpdateMapping.exit17:                      ; preds = %30, %Gia_ManUpdateMapping.exit
  ret i32 %25
}